; Function Attrs: nounwind sspstrong uwtable
define internal fastcc i64 @lookup_str_id(i64 noundef %0) unnamed_addr #0 {
  %2 = alloca i64, align 8
  %3 = alloca i32, align 4
  call void @llvm.lifetime.start.p0(i64 8, ptr nonnull %2) #19
  call void @llvm.lifetime.start.p0(i64 4, ptr nonnull %3) #19
  %4 = load ptr, ptr @ruby_single_main_ractor, align 8, !tbaa !24
  %.not.i.i = icmp eq ptr %4, null
  br i1 %.not.i.i, label %5, label %rb_vm_lock_enter.exit

5:                                                ; preds = %1
  call void @rb_vm_lock_enter_body(ptr noundef nonnull %3) #19
  br label %rb_vm_lock_enter.exit

rb_vm_lock_enter.exit:                            ; preds = %1, %5
  %6 = load ptr, ptr getelementptr inbounds nuw (i8, ptr @ruby_global_symbols, i64 8), align 8, !tbaa !15
  %7 = call i32 @rb_st_lookup(ptr noundef %6, i64 noundef %0, ptr noundef nonnull %2) #19
  %8 = load ptr, ptr @ruby_single_main_ractor, align 8, !tbaa !24
  %.not.i.i18 = icmp eq ptr %8, null
  br i1 %.not.i.i18, label %9, label %rb_vm_lock_leave.exit

9:                                                ; preds = %rb_vm_lock_enter.exit
  call void @rb_vm_lock_leave_body(ptr noundef nonnull %3) #19
  br label %rb_vm_lock_leave.exit

rb_vm_lock_leave.exit:                            ; preds = %rb_vm_lock_enter.exit, %9
  call void @llvm.lifetime.end.p0(i64 4, ptr nonnull %3) #19
  %.not = icmp eq i32 %7, 0
  br i1 %.not, label %29, label %10

10:                                               ; preds = %rb_vm_lock_leave.exit
  %11 = load i64, ptr %2, align 8, !tbaa !32
  %12 = and i64 %11, 255
  %13 = icmp eq i64 %12, 12
  br i1 %13, label %.thread, label %15

.thread:                                          ; preds = %10
  %14 = lshr i64 %11, 8
  br label %30

15:                                               ; preds = %10
  %16 = icmp eq i64 %11, 0
  %17 = and i64 %11, 7
  %18 = icmp ne i64 %17, 0
  %19 = or i1 %16, %18
  br i1 %19, label %RB_DYNAMIC_SYM_P.exit.thread, label %RB_DYNAMIC_SYM_P.exit

RB_DYNAMIC_SYM_P.exit:                            ; preds = %15
  %20 = inttoptr i64 %11 to ptr
  %21 = load i64, ptr %20, align 8, !tbaa !26
  %22 = and i64 %21, 31
  %23 = icmp eq i64 %22, 20
  br i1 %23, label %25, label %RB_DYNAMIC_SYM_P.exit.thread

RB_DYNAMIC_SYM_P.exit.thread:                     ; preds = %15, %RB_DYNAMIC_SYM_P.exit
  %24 = call ptr @rb_builtin_class_name(i64 noundef %11) #19
  call void (ptr, ...) @rb_bug(ptr noundef nonnull @.str.112, ptr noundef %24, i64 noundef %11, i64 noundef %0) #22
  unreachable

25:                                               ; preds = %RB_DYNAMIC_SYM_P.exit
  %26 = getelementptr inbounds nuw i8, ptr %20, i64 32
  %27 = load i64, ptr %26, align 8, !tbaa !31
  %28 = and i64 %27, -15
  %.not17 = icmp eq i64 %28, 0
  br i1 %.not17, label %29, label %30

29:                                               ; preds = %25, %rb_vm_lock_leave.exit
  br label %30

30:                                               ; preds = %.thread, %25, %29
  %.2 = phi i64 [ 0, %29 ], [ %27, %25 ], [ %14, %.thread ]
  call void @llvm.lifetime.end.p0(i64 8, ptr nonnull %2) #19
  ret i64 %.2
}